Certificate:
    Data:
        Version: 3 (0x2)
        Serial Number: 1 (0x1)
    Signature Algorithm: sha256WithRSAEncryption
        Issuer: C=CN, ST=ST, L=L, O=O, OU=ssl-self-signed-1495126503079
        Validity
            Not Before: May 18 16:55:03 2017 GMT
            Not After : Apr 24 16:55:03 2117 GMT
        Subject: C=CN, ST=ST, O=O, OU=OU, CN=192.168.56.102
        Subject Public Key Info:
            Public Key Algorithm: rsaEncryption
                Public-Key: (2048 bit)
                Modulus:
                    00:c3:6a:d6:a3:f3:c8:a2:ff:93:05:b3:67:9e:bf:
                    16:9b:82:98:5a:0a:f9:19:90:56:35:4b:1d:95:36:
                    1b:da:1e:41:90:33:5e:69:66:88:78:94:4b:9c:20:
                    1b:29:be:bc:20:a5:35:90:0b:e8:ca:c6:4b:d9:5e:
                    e4:e8:ce:55:7d:40:86:45:4c:31:3c:3e:e3:ec:d5:
                    61:24:a0:9a:87:91:21:b1:8f:2d:7a:7e:0d:72:9c:
                    a3:6e:9b:63:82:3d:ba:59:69:75:6e:8a:ea:20:90:
                    af:15:c7:b6:da:24:49:98:2b:40:5a:20:40:d3:53:
                    57:2e:14:ab:d9:3f:7c:06:5a:20:10:f2:cc:2a:5b:
                    82:4d:90:e2:bc:92:e9:f5:d7:8b:23:63:c4:6a:cc:
                    9e:8f:86:4e:e9:1d:d4:bd:81:96:f6:7a:95:7e:da:
                    93:30:4d:f2:2b:34:7b:72:6a:78:18:63:f9:b2:0f:
                    69:6c:b4:37:43:73:2d:2d:0a:96:84:32:62:21:9f:
                    5a:d4:93:30:1e:ec:a2:14:e8:cb:d7:bf:bf:f0:90:
                    43:16:f4:6a:ab:81:e4:e9:94:ad:01:71:f3:3a:e5:
                    ba:ab:df:90:25:9a:37:76:80:b7:aa:69:e9:9c:b1:
                    4f:cd:27:44:79:ac:26:84:d2:76:1f:ba:3a:4e:0c:
                    49:c3
                Exponent: 65537 (0x10001)
        X509v3 extensions:
            X509v3 Basic Constraints: 
                CA:FALSE
            Netscape Comment: 
                OpenSSL Generated Certificate
            X509v3 Subject Key Identifier: 
                FA:62:2B:93:19:17:9E:CD:D8:20:6A:64:A4:DA:35:28:38:79:C7:4E
            X509v3 Authority Key Identifier: 
                keyid:5B:47:57:22:68:5B:23:52:45:A7:CA:DD:FA:73:7C:D0:85:6A:71:45

    Signature Algorithm: sha256WithRSAEncryption
         3d:c8:8b:9a:5e:11:ba:51:ee:5f:99:4c:70:2f:2f:ff:ec:92:
         8d:ac:38:57:d4:e8:a5:af:2e:59:ff:4f:95:04:8f:1d:88:de:
         b6:7d:8f:de:81:8f:3e:c3:32:c0:10:61:fc:32:da:cc:f2:27:
         78:f0:35:15:17:e9:e5:7e:94:1e:24:8b:5b:dc:30:42:bc:fd:
         23:f0:37:0d:9c:47:d6:ac:04:46:f1:c5:ab:ef:f9:11:6c:f9:
         b9:00:e8:b8:96:66:25:bc:45:93:bb:4a:6e:55:d9:b9:60:64:
         22:dc:ce:12:5d:8c:eb:38:7d:63:1c:aa:7b:08:66:b0:f1:2a:
         c5:26:01:2f:38:7f:ef:6d:f2:07:8a:c7:6c:48:8b:08:c0:a7:
         b8:3d:b5:ca:8d:c4:10:69:b1:94:82:c0:11:38:b7:6a:fd:58:
         84:7d:f2:91:17:8b:c2:06:92:24:ca:21:b6:a8:bc:f7:af:f6:
         a6:c0:9a:37:a7:f6:b8:8b:a1:68:02:a9:08:c9:a9:78:80:ea:
         8a:3a:e2:cd:13:95:91:8d:a7:27:a9:f8:60:d4:f6:70:c0:b6:
         c8:4f:08:be:a3:8d:75:c3:54:d9:ab:15:fb:d4:8d:86:ec:8b:
         4f:c6:b1:a1:ee:df:1a:b2:bf:5e:31:91:40:09:59:df:38:5e:
         68:02:b7:f6
-----BEGIN CERTIFICATE-----
MIIDnjCCAoagAwIBAgIBATANBgkqhkiG9w0BAQsFADBaMQswCQYDVQQGEwJDTjEL
MAkGA1UECAwCU1QxCjAIBgNVBAcMAUwxCjAIBgNVBAoMAU8xJjAkBgNVBAsMHXNz
bC1zZWxmLXNpZ25lZC0xNDk1MTI2NTAzMDc5MCAXDTE3MDUxODE2NTUwM1oYDzIx
MTcwNDI0MTY1NTAzWjBMMQswCQYDVQQGEwJDTjELMAkGA1UECAwCU1QxCjAIBgNV
BAoMAU8xCzAJBgNVBAsMAk9VMRcwFQYDVQQDDA4xOTIuMTY4LjU2LjEwMjCCASIw
DQYJKoZIhvcNAQEBBQADggEPADCCAQoCggEBAMNq1qPzyKL/kwWzZ56/FpuCmFoK
+RmQVjVLHZU2G9oeQZAzXmlmiHiUS5wgGym+vCClNZAL6MrGS9le5OjOVX1AhkVM
MTw+4+zVYSSgmoeRIbGPLXp+DXKco26bY4I9ullpdW6K6iCQrxXHttokSZgrQFog
QNNTVy4Uq9k/fAZaIBDyzCpbgk2Q4ryS6fXXiyNjxGrMno+GTukd1L2BlvZ6lX7a
kzBN8is0e3JqeBhj+bIPaWy0N0NzLS0KloQyYiGfWtSTMB7sohToy9e/v/CQQxb0
aquB5OmUrQFx8zrluqvfkCWaN3aAt6pp6ZyxT80nRHmsJoTSdh+6Ok4MScMCAwEA
AaN7MHkwCQYDVR0TBAIwADAsBglghkgBhvhCAQ0EHxYdT3BlblNTTCBHZW5lcmF0
ZWQgQ2VydGlmaWNhdGUwHQYDVR0OBBYEFPpiK5MZF57N2CBqZKTaNSg4ecdOMB8G
A1UdIwQYMBaAFFtHVyJoWyNSRafK3fpzfNCFanFFMA0GCSqGSIb3DQEBCwUAA4IB
AQA9yIuaXhG6Ue5fmUxwLy//7JKNrDhX1Oilry5Z/0+VBI8diN62fY/egY8+wzLA
EGH8MtrM8id48DUVF+nlfpQeJItb3DBCvP0j8DcNnEfWrARG8cWr7/kRbPm5AOi4
lmYlvEWTu0puVdm5YGQi3M4SXYzrOH1jHKp7CGaw8SrFJgEvOH/vbfIHisdsSIsI
wKe4PbXKjcQQabGUgsAROLdq/ViEffKRF4vCBpIkyiG2qLz3r/amwJo3p/a4i6Fo
AqkIyal4gOqKOuLNE5WRjacnqfhg1PZwwLbITwi+o411w1TZqxX71I2G7ItPxrGh
7t8asr9eMZFACVnfOF5oArf2
-----END CERTIFICATE-----
